target datalayout = "e-m:e-p270:32:32-p271:32:32-p272:64:64-i64:64-i128:128-f80:128-n8:16:32:64-S128"
target triple = "x86_64-pc-linux-gnu"

@PqRecvLength = internal global i32 0, align 4
@PqRecvPointer = internal global i32 0, align 4
@PqRecvBuffer = internal global [8192 x i8] zeroinitializer, align 16

; Function Attrs: nounwind uwtable
define dso_local i32 @pq_peekbyte() #0 {
  %1 = alloca i32, align 4
  br label %2

2:                                                ; preds = %10, %0
  %3 = load i32, ptr @PqRecvPointer, align 4
  %4 = load i32, ptr @PqRecvLength, align 4
  %5 = icmp sge i32 %3, %4
  br i1 %5, label %6, label %11

6:                                                ; preds = %2
  %7 = call i32 @pq_recvbuf()
  %8 = icmp ne i32 %7, 0
  br i1 %8, label %9, label %10

9:                                                ; preds = %6
  store i32 -1, ptr %1, align 4
  br label %17

10:                                               ; preds = %6
  br label %2, !llvm.loop !10

11:                                               ; preds = %2
  %12 = load i32, ptr @PqRecvPointer, align 4
  %13 = sext i32 %12 to i64
  %14 = getelementptr inbounds [8192 x i8], ptr @PqRecvBuffer, i64 0, i64 %13
  %15 = load i8, ptr %14, align 1
  %16 = zext i8 %15 to i32
  store i32 %16, ptr %1, align 4
  br label %17

17:                                               ; preds = %11, %9
  %18 = load i32, ptr %1, align 4
  ret i32 %18
}