; Function Attrs: nounwind uwtable
define dso_local range(i32 -1, 256) i32 @pq_peekbyte() local_unnamed_addr #0 {
  br label %1

1:                                                ; preds = %4, %0
  %2 = load i32, ptr @PqRecvPointer, align 4
  %3 = load i32, ptr @PqRecvLength, align 4
  %.not = icmp slt i32 %2, %3
  br i1 %.not, label %6, label %4

4:                                                ; preds = %1
  %5 = tail call fastcc i32 @pq_recvbuf()
  %.not2 = icmp eq i32 %5, 0
  br i1 %.not2, label %1, label %.loopexit, !llvm.loop !7

6:                                                ; preds = %1
  %7 = sext i32 %2 to i64
  %8 = getelementptr inbounds [8192 x i8], ptr @PqRecvBuffer, i64 0, i64 %7
  %9 = load i8, ptr %8, align 1
  %10 = zext i8 %9 to i32
  br label %.loopexit

.loopexit:                                        ; preds = %4, %6
  %.0 = phi i32 [ %10, %6 ], [ -1, %4 ]
  ret i32 %.0
}